(dp1
S'info'
p2
ccopy_reg
_reconstructor
p3
(ctwisted.plugin
CachedDropin
p4
c__builtin__
object
p5
NtRp6
(dp7
S'moduleName'
p8
S'pypickupbot.modules.info'
p9
sS'description'
p10
S'generic informational commands'
p11
sS'plugins'
p12
(lp13
g3
(ctwisted.plugin
CachedPlugin
p14
g5
NtRp15
(dp16
S'provided'
p17
(lp18
cpypickupbot.modable
IModuleFactory
p19
actwisted.plugin
IPlugin
p20
asS'dropin'
p21
g6
sS'name'
p22
S'info'
p23
sg10
NsbasbsS'q_auth'
p24
g3
(g4
g5
NtRp25
(dp26
g8
S'pypickupbot.modules.q_auth'
p27
sg10
S'Authenticates with Q'
p28
sg12
(lp29
g3
(g14
g5
NtRp30
(dp31
g17
(lp32
g19
ag20
asg21
g25
sg22
S'q_auth'
p33
sg10
NsbasbsS'help'
p34
g3
(g4
g5
NtRp35
(dp36
g8
S'pypickupbot.modules.help'
p37
sg10
S'the help command'
p38
sg12
(lp39
g3
(g14
g5
NtRp40
(dp41
g17
(lp42
g19
ag20
asg21
g35
sg22
S'help'
p43
sg10
NsbasbsS'chanops'
p44
g3
(g4
g5
NtRp45
(dp46
g8
S'pypickupbot.modules.chanops'
p47
sg10
S'Makes main channel operators bot admins'
p48
sg12
(lp49
g3
(g14
g5
NtRp50
(dp51
g17
(lp52
g19
ag20
asg21
g45
sg22
S'chanops'
p53
sg10
NsbasbsS'topic'
p54
g3
(g4
g5
NtRp55
(dp56
g8
S'pypickupbot.modules.topic'
p57
sg10
S'Topic management commands'
p58
sg12
(lp59
g3
(g14
g5
NtRp60
(dp61
g17
(lp62
g19
ag20
asg21
g55
sg22
S'topic_mgt'
p63
sg10
NsbasbsS'pickup'
p64
g3
(g4
g5
NtRp65
(dp66
g8
S'pypickupbot.modules.pickup'
p67
sg10
S'Pickup-related commands'
p68
sg12
(lp69
g3
(g14
g5
NtRp70
(dp71
g17
(lp72
g19
ag20
asg21
g65
sg22
S'pickup'
p73
sg10
NsbasbsS'ban'
p74
g3
(g4
g5
NtRp75
(dp76
g8
S'pypickupbot.modules.ban'
p77
sg10
S'ban tracker'
p78
sg12
(lp79
g3
(g14
g5
NtRp80
(dp81
g17
(lp82
g19
ag20
asg21
g75
sg22
S'ban'
p83
sg10
NsbasbsS'pickup_playertracking'
p84
g3
(g4
g5
NtRp85
(dp86
g8
S'pypickupbot.modules.pickup_playertracking'
p87
sg10
Nsg12
(lp88
g3
(g14
g5
NtRp89
(dp90
g17
(lp91
g19
ag20
asg21
g85
sg22
S'player_tracking'
p92
sg10
Nsbasbs.